target datalayout = "e-m:e-p270:32:32-p271:32:32-p272:64:64-i64:64-i128:128-f80:128-n8:16:32:64-S128"
target triple = "x86_64-pc-linux-gnu"

; Function Attrs: nounwind uwtable
define ptr @zend_hash_str_add_or_update(ptr noundef %0, ptr noundef %1, i64 noundef %2, ptr noundef %3, i32 noundef %4) #0 {
  %6 = alloca ptr, align 8
  %7 = alloca ptr, align 8
  %8 = alloca ptr, align 8
  %9 = alloca i64, align 8
  %10 = alloca ptr, align 8
  %11 = alloca i32, align 4
  store ptr %0, ptr %7, align 8
  store ptr %1, ptr %8, align 8
  store i64 %2, ptr %9, align 8
  store ptr %3, ptr %10, align 8
  store i32 %4, ptr %11, align 4
  %12 = load i32, ptr %11, align 4
  %13 = icmp eq i32 %12, 2
  br i1 %13, label %14, label %20

14:                                               ; preds = %5
  %15 = load ptr, ptr %7, align 8
  %16 = load ptr, ptr %8, align 8
  %17 = load i64, ptr %9, align 8
  %18 = load ptr, ptr %10, align 8
  %19 = call ptr @zend_hash_str_add(ptr noundef %15, ptr noundef %16, i64 noundef %17, ptr noundef %18)
  store ptr %19, ptr %6, align 8
  br label %46

20:                                               ; preds = %5
  %21 = load i32, ptr %11, align 4
  %22 = icmp eq i32 %21, 8
  br i1 %22, label %23, label %29

23:                                               ; preds = %20
  %24 = load ptr, ptr %7, align 8
  %25 = load ptr, ptr %8, align 8
  %26 = load i64, ptr %9, align 8
  %27 = load ptr, ptr %10, align 8
  %28 = call ptr @zend_hash_str_add_new(ptr noundef %24, ptr noundef %25, i64 noundef %26, ptr noundef %27)
  store ptr %28, ptr %6, align 8
  br label %46

29:                                               ; preds = %20
  %30 = load i32, ptr %11, align 4
  %31 = icmp eq i32 %30, 1
  br i1 %31, label %32, label %38

32:                                               ; preds = %29
  %33 = load ptr, ptr %7, align 8
  %34 = load ptr, ptr %8, align 8
  %35 = load i64, ptr %9, align 8
  %36 = load ptr, ptr %10, align 8
  %37 = call ptr @zend_hash_str_update(ptr noundef %33, ptr noundef %34, i64 noundef %35, ptr noundef %36)
  store ptr %37, ptr %6, align 8
  br label %46

38:                                               ; preds = %29
  %39 = load i32, ptr %11, align 4
  %40 = icmp eq i32 %39, 5
  call void @llvm.assume(i1 %40)
  %41 = load ptr, ptr %7, align 8
  %42 = load ptr, ptr %8, align 8
  %43 = load i64, ptr %9, align 8
  %44 = load ptr, ptr %10, align 8
  %45 = call ptr @zend_hash_str_update_ind(ptr noundef %41, ptr noundef %42, i64 noundef %43, ptr noundef %44)
  store ptr %45, ptr %6, align 8
  br label %46

46:                                               ; preds = %38, %32, %23, %14
  %47 = load ptr, ptr %6, align 8
  ret ptr %47
}