; Function Attrs: nounwind uwtable
define ptr @zend_hash_str_add_or_update(ptr noundef %0, ptr noundef %1, i64 noundef %2, ptr noundef %3, i32 noundef %4) local_unnamed_addr #0 {
  switch i32 %4, label %12 [
    i32 2, label %6
    i32 8, label %8
    i32 1, label %10
  ]

6:                                                ; preds = %5
  %7 = tail call ptr @zend_hash_str_add(ptr noundef %0, ptr noundef %1, i64 noundef %2, ptr noundef %3)
  br label %15

8:                                                ; preds = %5
  %9 = tail call ptr @zend_hash_str_add_new(ptr noundef %0, ptr noundef %1, i64 noundef %2, ptr noundef %3)
  br label %15

10:                                               ; preds = %5
  %11 = tail call ptr @zend_hash_str_update(ptr noundef %0, ptr noundef %1, i64 noundef %2, ptr noundef %3)
  br label %15

12:                                               ; preds = %5
  %13 = icmp eq i32 %4, 5
  tail call void @llvm.assume(i1 %13)
  %14 = tail call ptr @zend_hash_str_update_ind(ptr noundef %0, ptr noundef %1, i64 noundef %2, ptr noundef %3)
  br label %15

15:                                               ; preds = %12, %10, %8, %6
  %.0 = phi ptr [ %7, %6 ], [ %9, %8 ], [ %11, %10 ], [ %14, %12 ]
  ret ptr %.0
}